(lp0
(dp1
S'temps'
p2
S'60'
p3
sS'texte_mode_enh'
p4
S'Inconnu'
p5
sS'score'
p6
S'100000'
p7
sS'cpm'
p8
S'10000'
p9
sS'date'
p10
S'01-01-2000'
p11
sS'heure'
p12
S'00:00:00'
p13
sS'mpm'
p14
S'2000'
p15
sS'pseudo'
p16
S'Dieu'
p17
sa(dp18
g2
S'60'
p19
sg4
S'Inconnu'
p20
sg6
S'5000'
p21
sg8
S'500'
p22
sg10
S'01-01-2000'
p23
sg12
S'00:00:00'
p24
sg14
S'100'
p25
sg16
S'Demi-Dieu'
p26
sa(dp27
g2
S'60'
p28
sg4
S'Inconnu'
p29
sg6
S'4000'
p30
sg8
S'400'
p31
sg10
S'01-01-2000'
p32
sg12
S'00:00:00'
p33
sg14
S'80'
p34
sg16
S'Professionnel'
p35
sa(dp36
g2
S'60'
p37
sg4
S'Inconnu'
p38
sg6
S'3000'
p39
sg8
S'300'
p40
sg10
S'01-01-2000'
p41
sg12
S'00:00:00'
p42
sg14
S'60'
p43
sg16
S'Expert'
p44
sa(dp45
g2
S'60'
p46
sg4
S'Inconnu'
p47
sg6
S'2000'
p48
sg8
S'200'
p49
sg10
S'01-01-2000'
p50
sg12
S'00:00:00'
p51
sg14
S'40'
p52
sg16
S'Grand Ma\xc3\xaetre'
p53
sa(dp54
g2
S'60'
p55
sg4
S'Inconnu'
p56
sg6
S'1500'
p57
sg8
S'150'
p58
sg10
S'01-01-2000'
p59
sg12
S'00:00:00'
p60
sg14
S'30'
p61
sg16
S'Champion'
p62
sa(dp63
g2
S'60'
p64
sg4
S'Inconnu'
p65
sg6
S'1000'
p66
sg8
S'100'
p67
sg10
S'01-01-2000'
p68
sg12
S'00:00:00'
p69
sg14
S'20'
p70
sg16
S'Habitu\xc3\xa9'
p71
sa(dp72
g2
S'60'
p73
sg4
S'Inconnu'
p74
sg6
S'750'
p75
sg8
S'75'
p76
sg10
S'01-01-2000'
p77
sg12
S'00:00:00'
p78
sg14
S'15'
p79
sg16
S'D\xc3\xa9butant V'
p80
sa(dp81
g2
S'60'
p82
sg4
S'Inconnu'
p83
sg6
S'500'
p84
sg8
S'50'
p85
sg10
S'01-01-2000'
p86
sg12
S'00:00:00'
p87
sg14
S'10'
p88
sg16
S'D\xc3\xa9butant IV'
p89
sa(dp90
g2
S'60'
p91
sg4
S'Inconnu'
p92
sg6
S'300'
p93
sg8
S'30'
p94
sg10
S'01-01-2000'
p95
sg12
S'00:00:00'
p96
sg14
S'6'
p97
sg16
S'D\xc3\xa9butant III'
p98
sa(dp99
g2
S'60'
p100
sg4
S'Inconnu'
p101
sg6
S'200'
p102
sg8
S'20'
p103
sg10
S'01-01-2000'
p104
sg12
S'00:00:00'
p105
sg14
S'4'
p106
sg16
S'D\xc3\xa9butant II'
p107
sa(dp108
g2
S'60'
p109
sg4
S'Inconnu'
p110
sg6
S'100'
p111
sg8
S'10'
p112
sg10
S'01-01-2000'
p113
sg12
S'00:00:00'
p114
sg14
S'2'
p115
sg16
S'D\xc3\xa9butant I'
p116
sa(dp117
g2
S'60'
p118
sg4
S'Inconnu'
p119
sg6
S'50'
p120
sg8
S'5'
p121
sg10
S'01-01-2000'
p122
sg12
S'00:00:00'
p123
sg14
S'1'
p124
sg16
S'Enfant V'
p125
sa(dp126
g2
S'60'
p127
sg4
S'Inconnu'
p128
sg6
S'40'
p129
sg8
g106
sg10
S'01-01-2000'
p130
sg12
S'00:00:00'
p131
sg14
g124
sg16
S'Enfant IV'
p132
sa(dp133
g2
S'60'
p134
sg4
S'Inconnu'
p135
sg6
S'30'
p136
sg8
S'3'
p137
sg10
S'01-01-2000'
p138
sg12
S'00:00:00'
p139
sg14
g124
sg16
S'Enfant III'
p140
sa(dp141
g2
S'60'
p142
sg4
S'Inconnu'
p143
sg6
S'20'
p144
sg8
g115
sg10
S'01-01-2000'
p145
sg12
S'00:00:00'
p146
sg14
S'0'
p147
sg16
S'Enfant II'
p148
sa(dp149
g2
S'60'
p150
sg4
S'Inconnu'
p151
sg6
S'10'
p152
sg8
g124
sg10
S'01-01-2000'
p153
sg12
S'00:00:00'
p154
sg14
g147
sg16
S'Enfant I'
p155
sa.