(lp0
(dp1
S'texte_mode_enh'
p2
S'00:00:00'
p3
sS'cpm'
p4
S'10000'
p5
sS'mpm'
p6
S'2000'
p7
sS'pseudo'
p8
S'Dieu'
p9
sS'score'
p10
S'100000'
p11
sS'date'
p12
S'60'
p13
sS'heure'
p14
S'01-01-2000'
p15
sa(dp16
g2
S'00:00:00'
p17
sg4
S'500'
p18
sg6
S'100'
p19
sg8
S'Demi-Dieu'
p20
sg10
S'5000'
p21
sg12
S'60'
p22
sg14
S'01-01-2000'
p23
sa(dp24
g2
S'00:00:00'
p25
sg4
S'400'
p26
sg6
S'80'
p27
sg8
S'Professionnel'
p28
sg10
S'4000'
p29
sg12
S'60'
p30
sg14
S'01-01-2000'
p31
sa(dp32
g2
S'00:00:00'
p33
sg4
S'300'
p34
sg6
S'60'
p35
sg8
S'Expert'
p36
sg10
S'3000'
p37
sg12
S'60'
p38
sg14
S'01-01-2000'
p39
sa(dp40
g2
S'00:00:00'
p41
sg4
S'200'
p42
sg6
S'40'
p43
sg8
S'Grand Ma\xc3\xaetre'
p44
sg10
S'2000'
p45
sg12
S'60'
p46
sg14
S'01-01-2000'
p47
sa(dp48
g2
S'00:00:00'
p49
sg4
S'150'
p50
sg6
S'30'
p51
sg8
S'Champion'
p52
sg10
S'1500'
p53
sg12
S'60'
p54
sg14
S'01-01-2000'
p55
sa(dp56
g2
S'00:00:00'
p57
sg4
S'100'
p58
sg6
S'20'
p59
sg8
S'Habitu\xc3\xa9'
p60
sg10
S'1000'
p61
sg12
S'60'
p62
sg14
S'01-01-2000'
p63
sa(dp64
g2
S'00:00:00'
p65
sg4
S'75'
p66
sg6
S'15'
p67
sg8
S'D\xc3\xa9butant V'
p68
sg10
S'750'
p69
sg12
S'60'
p70
sg14
S'01-01-2000'
p71
sa(dp72
g2
S'00:00:00'
p73
sg4
S'50'
p74
sg6
S'10'
p75
sg8
S'D\xc3\xa9butant IV'
p76
sg10
S'500'
p77
sg12
S'60'
p78
sg14
S'01-01-2000'
p79
sa(dp80
g2
S'00:00:00'
p81
sg4
S'30'
p82
sg6
S'6'
p83
sg8
S'D\xc3\xa9butant III'
p84
sg10
S'300'
p85
sg12
S'60'
p86
sg14
S'01-01-2000'
p87
sa(dp88
g2
S'00:00:00'
p89
sg4
S'20'
p90
sg6
S'4'
p91
sg8
S'D\xc3\xa9butant II'
p92
sg10
S'200'
p93
sg12
S'60'
p94
sg14
S'01-01-2000'
p95
sa(dp96
g2
S'00:00:00'
p97
sg4
S'10'
p98
sg6
S'2'
p99
sg8
S'D\xc3\xa9butant I'
p100
sg10
S'100'
p101
sg12
S'60'
p102
sg14
S'01-01-2000'
p103
sa(dp104
g2
S'00:00:00'
p105
sg4
S'5'
p106
sg6
S'1'
p107
sg8
S'Enfant V'
p108
sg10
S'50'
p109
sg12
S'60'
p110
sg14
S'01-01-2000'
p111
sa(dp112
g2
S'00:00:00'
p113
sg4
g91
sg6
g107
sg8
S'Enfant IV'
p114
sg10
S'40'
p115
sg12
S'60'
p116
sg14
S'01-01-2000'
p117
sa(dp118
g2
S'00:00:00'
p119
sg4
S'3'
p120
sg6
g107
sg8
S'Enfant III'
p121
sg10
S'30'
p122
sg12
S'60'
p123
sg14
S'01-01-2000'
p124
sa(dp125
g2
S'00:00:00'
p126
sg4
g99
sg6
S'0'
p127
sg8
S'Enfant II'
p128
sg10
S'20'
p129
sg12
S'60'
p130
sg14
S'01-01-2000'
p131
sa(dp132
g2
S'00:00:00'
p133
sg4
g107
sg6
g127
sg8
S'Enfant I'
p134
sg10
S'10'
p135
sg12
S'60'
p136
sg14
S'01-01-2000'
p137
sa.